; Function Attrs: mustprogress uwtable
define void @_ZN2cv7quality11QualityGMSD7computeERKNS_11_InputArrayES4_RKNS_12_OutputArrayE(ptr dead_on_unwind noalias writable writeonly sret(%"class.cv::Scalar_") align 8 captures(none) %0, ptr noundef nonnull align 8 dereferenceable(24) %1, ptr noundef nonnull align 8 dereferenceable(24) %2, ptr noundef nonnull align 8 dereferenceable(24) %3) local_unnamed_addr #0 align 2 personality ptr @__gxx_personality_v0 {
  %5 = alloca %"struct.std::pair", align 8
  %6 = alloca %"struct.cv::quality::QualityGMSD::_mat_data", align 8
  %7 = alloca %"struct.cv::quality::QualityGMSD::_mat_data", align 8
  call void @llvm.lifetime.start.p0(i64 112, ptr nonnull %5) #18
  call void @llvm.lifetime.start.p0(i64 160, ptr nonnull %6) #18
  call void @_ZN2cv7quality11QualityGMSD9_mat_dataC1ERKNS_11_InputArrayE(ptr noundef nonnull align 8 dereferenceable(160) %6, ptr noundef nonnull align 8 dereferenceable(24) %1)
  call void @llvm.lifetime.start.p0(i64 160, ptr nonnull %7) #18
  invoke void @_ZN2cv7quality11QualityGMSD9_mat_dataC1ERKNS_11_InputArrayE(ptr noundef nonnull align 8 dereferenceable(160) %7, ptr noundef nonnull align 8 dereferenceable(24) %2)
          to label %8 unwind label %16

8:                                                ; preds = %4
  invoke void @_ZN2cv7quality11QualityGMSD9_mat_data7computeERKS2_S4_(ptr dead_on_unwind nonnull writable sret(%"struct.std::pair") align 8 %5, ptr noundef nonnull align 8 dereferenceable(160) %6, ptr noundef nonnull align 8 dereferenceable(160) %7)
          to label %9 unwind label %18

9:                                                ; preds = %8
  %10 = getelementptr inbounds nuw i8, ptr %7, i64 80
  call void @_ZN2cv4UMatD1Ev(ptr noundef nonnull align 8 dereferenceable(80) %10) #18
  call void @_ZN2cv4UMatD1Ev(ptr noundef nonnull align 8 dereferenceable(160) %7) #18
  call void @llvm.lifetime.end.p0(i64 160, ptr nonnull %7) #18
  %11 = getelementptr inbounds nuw i8, ptr %6, i64 80
  call void @_ZN2cv4UMatD1Ev(ptr noundef nonnull align 8 dereferenceable(80) %11) #18
  call void @_ZN2cv4UMatD1Ev(ptr noundef nonnull align 8 dereferenceable(160) %6) #18
  call void @llvm.lifetime.end.p0(i64 160, ptr nonnull %6) #18
  %12 = invoke noundef zeroext i1 @_ZNK2cv12_OutputArray6neededEv(ptr noundef nonnull align 8 dereferenceable(24) %3)
          to label %13 unwind label %23

13:                                               ; preds = %9
  br i1 %12, label %14, label %_ZN2cv7Scalar_IdEC2ERKS1_.exit

14:                                               ; preds = %13
  %15 = getelementptr inbounds nuw i8, ptr %5, i64 32
  invoke void @_ZNK2cv12_OutputArray6assignERKNS_4UMatE(ptr noundef nonnull align 8 dereferenceable(24) %3, ptr noundef nonnull align 8 dereferenceable(80) %15)
          to label %_ZN2cv7Scalar_IdEC2ERKS1_.exit unwind label %23

16:                                               ; preds = %4
  %17 = landingpad { ptr, i32 }
          cleanup
  br label %21

18:                                               ; preds = %8
  %19 = landingpad { ptr, i32 }
          cleanup
  %20 = getelementptr inbounds nuw i8, ptr %7, i64 80
  call void @_ZN2cv4UMatD1Ev(ptr noundef nonnull align 8 dereferenceable(80) %20) #18
  call void @_ZN2cv4UMatD1Ev(ptr noundef nonnull align 8 dereferenceable(160) %7) #18
  br label %21

21:                                               ; preds = %18, %16
  %.pn = phi { ptr, i32 } [ %19, %18 ], [ %17, %16 ]
  call void @llvm.lifetime.end.p0(i64 160, ptr nonnull %7) #18
  %22 = getelementptr inbounds nuw i8, ptr %6, i64 80
  call void @_ZN2cv4UMatD1Ev(ptr noundef nonnull align 8 dereferenceable(80) %22) #18
  call void @_ZN2cv4UMatD1Ev(ptr noundef nonnull align 8 dereferenceable(160) %6) #18
  call void @llvm.lifetime.end.p0(i64 160, ptr nonnull %6) #18
  br label %27

23:                                               ; preds = %14, %9
  %24 = landingpad { ptr, i32 }
          cleanup
  %25 = getelementptr inbounds nuw i8, ptr %5, i64 32
  call void @_ZN2cv4UMatD1Ev(ptr noundef nonnull align 8 dereferenceable(80) %25) #18
  br label %27

_ZN2cv7Scalar_IdEC2ERKS1_.exit:                   ; preds = %14, %13
  call void @llvm.memcpy.p0.p0.i64(ptr noundef nonnull align 8 dereferenceable(32) %0, ptr noundef nonnull align 8 dereferenceable(32) %5, i64 32, i1 false), !tbaa !20
  %26 = getelementptr inbounds nuw i8, ptr %5, i64 32
  call void @_ZN2cv4UMatD1Ev(ptr noundef nonnull align 8 dereferenceable(80) %26) #18
  call void @llvm.lifetime.end.p0(i64 112, ptr nonnull %5) #18
  ret void

27:                                               ; preds = %23, %21
  %.pn8 = phi { ptr, i32 } [ %24, %23 ], [ %.pn, %21 ]
  call void @llvm.lifetime.end.p0(i64 112, ptr nonnull %5) #18
  resume { ptr, i32 } %.pn8
}